target datalayout = "e-m:e-p270:32:32-p271:32:32-p272:64:64-i64:64-i128:128-f80:128-n8:16:32:64-S128"
target triple = "x86_64-pc-linux-gnu"

%struct._php_output_context = type { i32, %struct._php_output_buffer, %struct._php_output_buffer }
%struct._php_output_buffer = type { ptr, i64, i64, i32 }

; Function Attrs: inlinehint nounwind uwtable
define internal void @php_output_context_pass(ptr noundef %0) #1 {
  %2 = alloca ptr, align 8
  store ptr %0, ptr %2, align 8, !tbaa !69
  %3 = load ptr, ptr %2, align 8, !tbaa !69
  %4 = getelementptr inbounds nuw %struct._php_output_context, ptr %3, i32 0, i32 1
  %5 = getelementptr inbounds nuw %struct._php_output_buffer, ptr %4, i32 0, i32 0
  %6 = load ptr, ptr %5, align 8, !tbaa !61
  %7 = load ptr, ptr %2, align 8, !tbaa !69
  %8 = getelementptr inbounds nuw %struct._php_output_context, ptr %7, i32 0, i32 2
  %9 = getelementptr inbounds nuw %struct._php_output_buffer, ptr %8, i32 0, i32 0
  store ptr %6, ptr %9, align 8, !tbaa !67
  %10 = load ptr, ptr %2, align 8, !tbaa !69
  %11 = getelementptr inbounds nuw %struct._php_output_context, ptr %10, i32 0, i32 1
  %12 = getelementptr inbounds nuw %struct._php_output_buffer, ptr %11, i32 0, i32 2
  %13 = load i64, ptr %12, align 8, !tbaa !64
  %14 = load ptr, ptr %2, align 8, !tbaa !69
  %15 = getelementptr inbounds nuw %struct._php_output_context, ptr %14, i32 0, i32 2
  %16 = getelementptr inbounds nuw %struct._php_output_buffer, ptr %15, i32 0, i32 2
  store i64 %13, ptr %16, align 8, !tbaa !68
  %17 = load ptr, ptr %2, align 8, !tbaa !69
  %18 = getelementptr inbounds nuw %struct._php_output_context, ptr %17, i32 0, i32 1
  %19 = getelementptr inbounds nuw %struct._php_output_buffer, ptr %18, i32 0, i32 1
  %20 = load i64, ptr %19, align 8, !tbaa !127
  %21 = load ptr, ptr %2, align 8, !tbaa !69
  %22 = getelementptr inbounds nuw %struct._php_output_context, ptr %21, i32 0, i32 2
  %23 = getelementptr inbounds nuw %struct._php_output_buffer, ptr %22, i32 0, i32 1
  store i64 %20, ptr %23, align 8, !tbaa !128
  %24 = load ptr, ptr %2, align 8, !tbaa !69
  %25 = getelementptr inbounds nuw %struct._php_output_context, ptr %24, i32 0, i32 1
  %26 = getelementptr inbounds nuw %struct._php_output_buffer, ptr %25, i32 0, i32 3
  %27 = load i32, ptr %26, align 8
  %28 = and i32 %27, 1
  %29 = load ptr, ptr %2, align 8, !tbaa !69
  %30 = getelementptr inbounds nuw %struct._php_output_context, ptr %29, i32 0, i32 2
  %31 = getelementptr inbounds nuw %struct._php_output_buffer, ptr %30, i32 0, i32 3
  %32 = load i32, ptr %31, align 8
  %33 = and i32 %28, 1
  %34 = and i32 %32, -2
  %35 = or i32 %34, %33
  store i32 %35, ptr %31, align 8
  %36 = load ptr, ptr %2, align 8, !tbaa !69
  %37 = getelementptr inbounds nuw %struct._php_output_context, ptr %36, i32 0, i32 1
  %38 = getelementptr inbounds nuw %struct._php_output_buffer, ptr %37, i32 0, i32 0
  store ptr null, ptr %38, align 8, !tbaa !61
  %39 = load ptr, ptr %2, align 8, !tbaa !69
  %40 = getelementptr inbounds nuw %struct._php_output_context, ptr %39, i32 0, i32 1
  %41 = getelementptr inbounds nuw %struct._php_output_buffer, ptr %40, i32 0, i32 2
  store i64 0, ptr %41, align 8, !tbaa !64
  %42 = load ptr, ptr %2, align 8, !tbaa !69
  %43 = getelementptr inbounds nuw %struct._php_output_context, ptr %42, i32 0, i32 1
  %44 = getelementptr inbounds nuw %struct._php_output_buffer, ptr %43, i32 0, i32 3
  %45 = load i32, ptr %44, align 8
  %46 = and i32 %45, -2
  %47 = or i32 %46, 0
  store i32 %47, ptr %44, align 8
  %48 = load ptr, ptr %2, align 8, !tbaa !69
  %49 = getelementptr inbounds nuw %struct._php_output_context, ptr %48, i32 0, i32 1
  %50 = getelementptr inbounds nuw %struct._php_output_buffer, ptr %49, i32 0, i32 1
  store i64 0, ptr %50, align 8, !tbaa !127
  ret void
}

; Function Attrs: nounwind uwtable
define internal i32 @php_output_handler_default_func(ptr noundef %0, ptr noundef %1) #0 {
  %3 = alloca ptr, align 8
  %4 = alloca ptr, align 8
  store ptr %0, ptr %3, align 8, !tbaa !4
  store ptr %1, ptr %4, align 8, !tbaa !69
  %5 = load ptr, ptr %4, align 8, !tbaa !69
  call void @php_output_context_pass(ptr noundef %5)
  ret i32 0
}