; Function Attrs: mustprogress nofree norecurse nosync nounwind willreturn memory(argmem: readwrite) uwtable
define internal noundef i32 @php_output_handler_default_func(ptr readnone captures(none) %0, ptr noundef captures(none) initializes((40, 64)) %1) #10 {
  %3 = getelementptr inbounds nuw i8, ptr %1, i64 8
  %4 = load ptr, ptr %3, align 8, !tbaa !52
  %5 = getelementptr inbounds nuw i8, ptr %1, i64 40
  store ptr %4, ptr %5, align 8, !tbaa !56
  %6 = getelementptr inbounds nuw i8, ptr %1, i64 24
  %7 = load i64, ptr %6, align 8, !tbaa !53
  %8 = getelementptr inbounds nuw i8, ptr %1, i64 56
  store i64 %7, ptr %8, align 8, !tbaa !57
  %9 = getelementptr inbounds nuw i8, ptr %1, i64 16
  %10 = load i64, ptr %9, align 8, !tbaa !77
  %11 = getelementptr inbounds nuw i8, ptr %1, i64 48
  store i64 %10, ptr %11, align 8, !tbaa !58
  %12 = getelementptr inbounds nuw i8, ptr %1, i64 32
  %13 = load i32, ptr %12, align 8
  %14 = and i32 %13, 1
  %15 = getelementptr inbounds nuw i8, ptr %1, i64 64
  %16 = load i32, ptr %15, align 8
  %17 = and i32 %16, -2
  %18 = or disjoint i32 %17, %14
  store i32 %18, ptr %15, align 8
  store ptr null, ptr %3, align 8, !tbaa !52
  store i64 0, ptr %6, align 8, !tbaa !53
  %19 = and i32 %13, -2
  store i32 %19, ptr %12, align 8
  store i64 0, ptr %9, align 8, !tbaa !77
  ret i32 0
}